; Function Attrs: nounwind uwtable
define ptr @l_Array_foldlMUnsafe_fold___at_Lean_Elab_Tactic_BVDecide_Frontend_Normalize_SharedCoefficients_compute___spec__8(ptr noundef readnone captures(none) %0, ptr noundef readonly captures(none) %1, ptr noundef readonly captures(none) %2, i64 noundef %3, i64 noundef %4, ptr noundef %5) local_unnamed_addr #0 {
  %.not27 = icmp eq i64 %3, %4
  br i1 %.not27, label %._crit_edge, label %.lr.ph

.lr.ph:                                           ; preds = %6
  %7 = getelementptr inbounds nuw i8, ptr %2, i64 24
  br label %8

8:                                                ; preds = %.lr.ph, %19
  %.01629 = phi i64 [ %3, %.lr.ph ], [ %21, %19 ]
  %.01828 = phi ptr [ %5, %.lr.ph ], [ %20, %19 ]
  %9 = getelementptr inbounds nuw [0 x ptr], ptr %7, i64 0, i64 %.01629
  %10 = load ptr, ptr %9, align 8, !tbaa !4
  %11 = ptrtoint ptr %10 to i64
  %12 = and i64 %11, 1
  %.not.i = icmp eq i64 %12, 0
  br i1 %.not.i, label %13, label %19

13:                                               ; preds = %8
  %.val.i.i = load i32, ptr %10, align 4, !tbaa !8
  %14 = icmp sgt i32 %.val.i.i, 0
  br i1 %14, label %15, label %17, !prof !11

15:                                               ; preds = %13
  %16 = add nuw i32 %.val.i.i, 1
  store i32 %16, ptr %10, align 4, !tbaa !8
  br label %19

17:                                               ; preds = %13
  %.not.i.i = icmp eq i32 %.val.i.i, 0
  br i1 %.not.i.i, label %19, label %18

18:                                               ; preds = %17
  tail call void @lean_inc_ref_cold(ptr noundef nonnull %10) #5
  br label %19

19:                                               ; preds = %18, %17, %15, %8
  %20 = tail call ptr @l_Std_DHashMap_Internal_AssocList_foldlM___at_Lean_Elab_Tactic_BVDecide_Frontend_Normalize_SharedCoefficients_compute___spec__3(ptr poison, ptr noundef %1, ptr noundef %.01828, ptr noundef %10)
  %21 = add i64 %.01629, 1
  %.not = icmp eq i64 %21, %4
  br i1 %.not, label %._crit_edge, label %8

._crit_edge:                                      ; preds = %19, %6
  %.018.lcssa = phi ptr [ %5, %6 ], [ %20, %19 ]
  ret ptr %.018.lcssa
}